; Function Attrs: mustprogress uwtable
define noundef i64 @_ZN11duckdb_zstd19ZSTD_compressStreamEPNS_11ZSTD_CCtx_sEPNS_16ZSTD_outBuffer_sEPNS_15ZSTD_inBuffer_sE(ptr noundef %0, ptr noundef captures(none) %1, ptr noundef captures(none) %2) local_unnamed_addr #2 {
  %4 = tail call noundef i64 @_ZN11duckdb_zstd20ZSTD_compressStream2EPNS_11ZSTD_CCtx_sEPNS_16ZSTD_outBuffer_sEPNS_15ZSTD_inBuffer_sENS_17ZSTD_EndDirectiveE(ptr noundef %0, ptr noundef %1, ptr noundef %2, i32 noundef 0)
  %5 = icmp ult i64 %4, -119
  br i1 %5, label %6, label %_ZN11duckdb_zstdL29ZSTD_nextInputSizeHint_MTorSTEPKNS_11ZSTD_CCtx_sE.exit

6:                                                ; preds = %3
  %7 = getelementptr inbounds nuw i8, ptr %0, i64 356
  %8 = load i32, ptr %7, align 4, !tbaa !342
  %9 = icmp eq i32 %8, 1
  br i1 %9, label %10, label %16

10:                                               ; preds = %6
  %11 = getelementptr inbounds nuw i8, ptr %0, i64 752
  %12 = load i64, ptr %11, align 8, !tbaa !258
  %13 = getelementptr inbounds nuw i8, ptr %0, i64 3640
  %14 = load i64, ptr %13, align 8, !tbaa !343
  %15 = sub i64 %12, %14
  br label %_ZN11duckdb_zstdL29ZSTD_nextInputSizeHint_MTorSTEPKNS_11ZSTD_CCtx_sE.exit

16:                                               ; preds = %6
  %17 = getelementptr inbounds nuw i8, ptr %0, i64 3568
  %18 = load i64, ptr %17, align 8, !tbaa !344
  %19 = getelementptr inbounds nuw i8, ptr %0, i64 3560
  %20 = load i64, ptr %19, align 8, !tbaa !168
  %21 = sub i64 %18, %20
  %22 = icmp eq i64 %21, 0
  br i1 %22, label %23, label %_ZN11duckdb_zstdL29ZSTD_nextInputSizeHint_MTorSTEPKNS_11ZSTD_CCtx_sE.exit

23:                                               ; preds = %16
  %24 = getelementptr inbounds nuw i8, ptr %0, i64 752
  %25 = load i64, ptr %24, align 8, !tbaa !258
  br label %_ZN11duckdb_zstdL29ZSTD_nextInputSizeHint_MTorSTEPKNS_11ZSTD_CCtx_sE.exit

_ZN11duckdb_zstdL29ZSTD_nextInputSizeHint_MTorSTEPKNS_11ZSTD_CCtx_sE.exit: ; preds = %23, %16, %10, %3
  %.1 = phi i64 [ %4, %3 ], [ %15, %10 ], [ %25, %23 ], [ %21, %16 ]
  ret i64 %.1
}